; Function Attrs: nounwind uwtable
define ptr @l_Lean_SMap_instForMProd___rarg(ptr noundef %0, ptr noundef %1, ptr readnone captures(none) %2, ptr noundef %3, ptr noundef %4, ptr noundef %5) #0 {
  tail call void @lean_inc_heartbeat() #3
  %7 = tail call noalias ptr @mi_malloc_small(i64 noundef 32) #3
  %8 = icmp eq ptr %7, null
  br i1 %8, label %9, label %lean_alloc_closure.exit

9:                                                ; preds = %6
  tail call void @lean_internal_panic_out_of_memory() #4
  unreachable

lean_alloc_closure.exit:                          ; preds = %6
  %10 = getelementptr inbounds nuw i8, ptr %7, i64 4
  store i32 1, ptr %7, align 4, !tbaa !10
  store i32 -184549344, ptr %10, align 4
  %11 = getelementptr inbounds nuw i8, ptr %7, i64 8
  store ptr @l_Lean_SMap_instForMProd___rarg___lambda__1, ptr %11, align 8, !tbaa !4
  %12 = getelementptr inbounds nuw i8, ptr %7, i64 16
  store i16 3, ptr %12, align 8, !tbaa !13
  %13 = getelementptr inbounds nuw i8, ptr %7, i64 18
  store i16 1, ptr %13, align 2, !tbaa !13
  %14 = getelementptr inbounds nuw i8, ptr %7, i64 24
  store ptr %5, ptr %14, align 8, !tbaa !4
  %15 = tail call ptr @l_Lean_SMap_forM___at_Lean_SMap_instForMProd___spec__1___rarg(ptr noundef %0, ptr noundef %1, ptr nonnull poison, ptr noundef %3, ptr noundef %4, ptr noundef nonnull %7)
  ret ptr %15
}